; Function Attrs: mustprogress uwtable
define hidden noundef nonnull align 8 dereferenceable(8) ptr @_ZN19OpenColorIO_v2_4dev18FormatMetadataImplaSERKNS_14FormatMetadataE(ptr noundef nonnull returned align 8 dereferenceable(120) %this, ptr noundef nonnull align 8 dereferenceable(8) %rhs) unnamed_addr #0 align 2 {
entry:
  %cmp.not = icmp eq ptr %this, %rhs
  br i1 %cmp.not, label %if.end, label %if.then

if.then:                                          ; preds = %entry
  %0 = tail call ptr @__dynamic_cast(ptr nonnull %rhs, ptr nonnull @_ZTIN19OpenColorIO_v2_4dev14FormatMetadataE, ptr nonnull @_ZTIN19OpenColorIO_v2_4dev18FormatMetadataImplE, i64 0) #17
  %1 = icmp eq ptr %0, null
  br i1 %1, label %dynamic_cast.bad_cast, label %dynamic_cast.end

dynamic_cast.bad_cast:                            ; preds = %if.then
  tail call void @__cxa_bad_cast() #18
  unreachable

dynamic_cast.end:                                 ; preds = %if.then
  %cmp.not.i = icmp eq ptr %0, %this
  br i1 %cmp.not.i, label %if.end, label %if.then.i

if.then.i:                                        ; preds = %dynamic_cast.end
  %m_name.i = getelementptr inbounds i8, ptr %0, i64 8
  %m_name2.i = getelementptr inbounds i8, ptr %this, i64 8
  %call.i = tail call noundef nonnull align 8 dereferenceable(32) ptr @_ZNSt7__cxx1112basic_stringIcSt11char_traitsIcESaIcEEaSERKS4_(ptr noundef nonnull align 8 dereferenceable(32) %m_name2.i, ptr noundef nonnull align 8 dereferenceable(32) %m_name.i)
  %m_value.i = getelementptr inbounds i8, ptr %0, i64 40
  %m_value3.i = getelementptr inbounds i8, ptr %this, i64 40
  %call4.i = tail call noundef nonnull align 8 dereferenceable(32) ptr @_ZNSt7__cxx1112basic_stringIcSt11char_traitsIcESaIcEEaSERKS4_(ptr noundef nonnull align 8 dereferenceable(32) %m_value3.i, ptr noundef nonnull align 8 dereferenceable(32) %m_value.i)
  %m_attributes.i = getelementptr inbounds i8, ptr %0, i64 72
  %m_attributes5.i = getelementptr inbounds i8, ptr %this, i64 72
  %call6.i = tail call noundef nonnull align 8 dereferenceable(24) ptr @_ZNSt6vectorISt4pairINSt7__cxx1112basic_stringIcSt11char_traitsIcESaIcEEES6_ESaIS7_EEaSERKS9_(ptr noundef nonnull align 8 dereferenceable(24) %m_attributes5.i, ptr noundef nonnull align 8 dereferenceable(24) %m_attributes.i)
  %m_elements.i = getelementptr inbounds i8, ptr %0, i64 96
  %m_elements7.i = getelementptr inbounds i8, ptr %this, i64 96
  %call8.i = tail call noundef nonnull align 8 dereferenceable(24) ptr @_ZNSt6vectorIN19OpenColorIO_v2_4dev18FormatMetadataImplESaIS1_EEaSERKS3_(ptr noundef nonnull align 8 dereferenceable(24) %m_elements7.i, ptr noundef nonnull align 8 dereferenceable(24) %m_elements.i)
  br label %if.end

if.end:                                           ; preds = %if.then.i, %dynamic_cast.end, %entry
  ret ptr %this
}